; ModuleID = 'source-C-CXX/61/583.c'
source_filename = "source-C-CXX/61/583.c"
target datalayout = "e-m:e-p270:32:32-p271:32:32-p272:64:64-i64:64-f80:128-n8:16:32:64-S128"
target triple = "x86_64-pc-linux-gnu"

; Function Attrs: nounwind sspstrong uwtable
define dso_local i32 @main() local_unnamed_addr #0 {
  %1 = tail call noalias align 16 dereferenceable_or_null(1000) i8* @malloc(i64 1000) #4
  %2 = tail call i32 (i8*, ...) bitcast (i32 (...)* @gets to i32 (i8*, ...)*)(i8* %1) #4
  br label %3

3:                                                ; preds = %17, %0
  %4 = phi i64 [ %19, %17 ], [ 0, %0 ]
  %5 = phi i32 [ %18, %17 ], [ 0, %0 ]
  %6 = getelementptr inbounds i8, i8* %1, i64 %4
  %7 = load i8, i8* %6, align 1, !tbaa !5
  switch i8 %7, label %10 [
    i8 0, label %20
    i8 32, label %8
  ]

8:                                                ; preds = %3
  %9 = icmp eq i32 %5, 1
  br i1 %9, label %15, label %17

10:                                               ; preds = %3
  %11 = sext i8 %7 to i32
  %12 = tail call i32 @putchar(i32 %11)
  %13 = load i8, i8* %6, align 1, !tbaa !5
  %14 = icmp eq i8 %13, 32
  br i1 %14, label %15, label %17

15:                                               ; preds = %8, %10
  %16 = tail call i32 @putchar(i32 32)
  br label %17

17:                                               ; preds = %8, %10, %15
  %18 = phi i32 [ 0, %15 ], [ 1, %10 ], [ 0, %8 ]
  %19 = add nuw i64 %4, 1
  br label %3, !llvm.loop !8

20:                                               ; preds = %3
  ret i32 0
}

; Function Attrs: inaccessiblememonly mustprogress nofree nounwind willreturn
declare noalias noundef align 16 i8* @malloc(i64 noundef) local_unnamed_addr #1

declare i32 @gets(...) local_unnamed_addr #2

; Function Attrs: nofree nounwind
declare noundef i32 @putchar(i32 noundef) local_unnamed_addr #3


!llvm.module.flags = !{!0, !1, !2, !3}
!llvm.ident = !{!4}

!0 = !{i32 1, !"wchar_size", i32 4}
!1 = !{i32 7, !"PIC Level", i32 2}
!2 = !{i32 7, !"PIE Level", i32 2}
!3 = !{i32 7, !"uwtable", i32 1}
!4 = !{!"clang version 13.0.0"}
!5 = !{!6, !6, i64 0}
!6 = !{!"omnipotent char", !7, i64 0}
!7 = !{!"Simple C/C++ TBAA"}
!8 = distinct !{!8, !9}
!9 = !{!"llvm.loop.mustprogress"}
